#include <math.h>
#include <stdio.h>
#include <stdlib.h>
#include <string.h>

void main()
{
	int n;
	int i,j,k;
	char str[50][10];
	scanf("%d",&n);
	for(i=0;i<n;i++)
	{
		scanf("%s",str[i]);
	}
	for(i=0;i<n;i++)
	{
		for(j=0;j<10;j++)
		{
			if(str[i][j]=='e'&&str[i][j+1]=='r'&&str[i][j+2]=='\0')
			{
				for(k=0;k<j-1;k++)
					printf("%c",str[i][k]);
				printf("%c\n",str[i][j-1]);
			}
			if(str[i][j]=='l'&&str[i][j+1]=='y'&&str[i][j+2]=='\0')
			{
				for(k=0;k<j-1;k++)
					printf("%c",str[i][k]);
				printf("%c\n",str[i][j-1]);
			}
			if(str[i][j]=='i'&&str[i][j+1]=='n'&&str[i][j+2]=='g'&&str[i][j+3]=='\0')
			{
					for(k=0;k<j-1;k++)
					printf("%c",str[i][k]);
				printf("%c\n",str[i][j-1]);
			}
		}
	}
}