; ModuleID = '57/2153.c'
source_filename = "57/2153.c"
target datalayout = "e-m:e-p270:32:32-p271:32:32-p272:64:64-i64:64-f80:128-n8:16:32:64-S128"
target triple = "x86_64-pc-linux-gnu"

@.str = private unnamed_addr constant [3 x i8] c"%d\00", align 1
@.str.1 = private unnamed_addr constant [3 x i8] c"%s\00", align 1
@.str.2 = private unnamed_addr constant [3 x i8] c"%c\00", align 1
@.str.3 = private unnamed_addr constant [4 x i8] c"%c\0A\00", align 1

; Function Attrs: noinline nounwind uwtable
define dso_local void @main() #0 {
  %1 = alloca i32, align 4
  %2 = alloca i32, align 4
  %3 = alloca i32, align 4
  %4 = alloca i32, align 4
  %5 = alloca [50 x [10 x i8]], align 16
  %6 = call i32 (i8*, ...) @__isoc99_scanf(i8* getelementptr inbounds ([3 x i8], [3 x i8]* @.str, i64 0, i64 0), i32* %1)
  store i32 0, i32* %2, align 4
  br label %7

7:                                                ; preds = %17, %0
  %8 = load i32, i32* %2, align 4
  %9 = load i32, i32* %1, align 4
  %10 = icmp slt i32 %8, %9
  br i1 %10, label %11, label %20

11:                                               ; preds = %7
  %12 = load i32, i32* %2, align 4
  %13 = sext i32 %12 to i64
  %14 = getelementptr inbounds [50 x [10 x i8]], [50 x [10 x i8]]* %5, i64 0, i64 %13
  %15 = getelementptr inbounds [10 x i8], [10 x i8]* %14, i64 0, i64 0
  %16 = call i32 (i8*, ...) @__isoc99_scanf(i8* getelementptr inbounds ([3 x i8], [3 x i8]* @.str.1, i64 0, i64 0), i8* %15)
  br label %17

17:                                               ; preds = %11
  %18 = load i32, i32* %2, align 4
  %19 = add nsw i32 %18, 1
  store i32 %19, i32* %2, align 4
  br label %7

20:                                               ; preds = %7
  store i32 0, i32* %2, align 4
  br label %21

21:                                               ; preds = %231, %20
  %22 = load i32, i32* %2, align 4
  %23 = load i32, i32* %1, align 4
  %24 = icmp slt i32 %22, %23
  br i1 %24, label %25, label %234

25:                                               ; preds = %21
  store i32 0, i32* %3, align 4
  br label %26

26:                                               ; preds = %227, %25
  %27 = load i32, i32* %3, align 4
  %28 = icmp slt i32 %27, 10
  br i1 %28, label %29, label %230

29:                                               ; preds = %26
  %30 = load i32, i32* %2, align 4
  %31 = sext i32 %30 to i64
  %32 = getelementptr inbounds [50 x [10 x i8]], [50 x [10 x i8]]* %5, i64 0, i64 %31
  %33 = load i32, i32* %3, align 4
  %34 = sext i32 %33 to i64
  %35 = getelementptr inbounds [10 x i8], [10 x i8]* %32, i64 0, i64 %34
  %36 = load i8, i8* %35, align 1
  %37 = sext i8 %36 to i32
  %38 = icmp eq i32 %37, 101
  br i1 %38, label %39, label %91

39:                                               ; preds = %29
  %40 = load i32, i32* %2, align 4
  %41 = sext i32 %40 to i64
  %42 = getelementptr inbounds [50 x [10 x i8]], [50 x [10 x i8]]* %5, i64 0, i64 %41
  %43 = load i32, i32* %3, align 4
  %44 = add nsw i32 %43, 1
  %45 = sext i32 %44 to i64
  %46 = getelementptr inbounds [10 x i8], [10 x i8]* %42, i64 0, i64 %45
  %47 = load i8, i8* %46, align 1
  %48 = sext i8 %47 to i32
  %49 = icmp eq i32 %48, 114
  br i1 %49, label %50, label %91

50:                                               ; preds = %39
  %51 = load i32, i32* %2, align 4
  %52 = sext i32 %51 to i64
  %53 = getelementptr inbounds [50 x [10 x i8]], [50 x [10 x i8]]* %5, i64 0, i64 %52
  %54 = load i32, i32* %3, align 4
  %55 = add nsw i32 %54, 2
  %56 = sext i32 %55 to i64
  %57 = getelementptr inbounds [10 x i8], [10 x i8]* %53, i64 0, i64 %56
  %58 = load i8, i8* %57, align 1
  %59 = sext i8 %58 to i32
  %60 = icmp eq i32 %59, 0
  br i1 %60, label %61, label %91

61:                                               ; preds = %50
  store i32 0, i32* %4, align 4
  br label %62

62:                                               ; preds = %77, %61
  %63 = load i32, i32* %4, align 4
  %64 = load i32, i32* %3, align 4
  %65 = sub nsw i32 %64, 1
  %66 = icmp slt i32 %63, %65
  br i1 %66, label %67, label %80

67:                                               ; preds = %62
  %68 = load i32, i32* %2, align 4
  %69 = sext i32 %68 to i64
  %70 = getelementptr inbounds [50 x [10 x i8]], [50 x [10 x i8]]* %5, i64 0, i64 %69
  %71 = load i32, i32* %4, align 4
  %72 = sext i32 %71 to i64
  %73 = getelementptr inbounds [10 x i8], [10 x i8]* %70, i64 0, i64 %72
  %74 = load i8, i8* %73, align 1
  %75 = sext i8 %74 to i32
  %76 = call i32 (i8*, ...) @printf(i8* getelementptr inbounds ([3 x i8], [3 x i8]* @.str.2, i64 0, i64 0), i32 %75)
  br label %77

77:                                               ; preds = %67
  %78 = load i32, i32* %4, align 4
  %79 = add nsw i32 %78, 1
  store i32 %79, i32* %4, align 4
  br label %62

80:                                               ; preds = %62
  %81 = load i32, i32* %2, align 4
  %82 = sext i32 %81 to i64
  %83 = getelementptr inbounds [50 x [10 x i8]], [50 x [10 x i8]]* %5, i64 0, i64 %82
  %84 = load i32, i32* %3, align 4
  %85 = sub nsw i32 %84, 1
  %86 = sext i32 %85 to i64
  %87 = getelementptr inbounds [10 x i8], [10 x i8]* %83, i64 0, i64 %86
  %88 = load i8, i8* %87, align 1
  %89 = sext i8 %88 to i32
  %90 = call i32 (i8*, ...) @printf(i8* getelementptr inbounds ([4 x i8], [4 x i8]* @.str.3, i64 0, i64 0), i32 %89)
  br label %91

91:                                               ; preds = %80, %50, %39, %29
  %92 = load i32, i32* %2, align 4
  %93 = sext i32 %92 to i64
  %94 = getelementptr inbounds [50 x [10 x i8]], [50 x [10 x i8]]* %5, i64 0, i64 %93
  %95 = load i32, i32* %3, align 4
  %96 = sext i32 %95 to i64
  %97 = getelementptr inbounds [10 x i8], [10 x i8]* %94, i64 0, i64 %96
  %98 = load i8, i8* %97, align 1
  %99 = sext i8 %98 to i32
  %100 = icmp eq i32 %99, 108
  br i1 %100, label %101, label %153

101:                                              ; preds = %91
  %102 = load i32, i32* %2, align 4
  %103 = sext i32 %102 to i64
  %104 = getelementptr inbounds [50 x [10 x i8]], [50 x [10 x i8]]* %5, i64 0, i64 %103
  %105 = load i32, i32* %3, align 4
  %106 = add nsw i32 %105, 1
  %107 = sext i32 %106 to i64
  %108 = getelementptr inbounds [10 x i8], [10 x i8]* %104, i64 0, i64 %107
  %109 = load i8, i8* %108, align 1
  %110 = sext i8 %109 to i32
  %111 = icmp eq i32 %110, 121
  br i1 %111, label %112, label %153

112:                                              ; preds = %101
  %113 = load i32, i32* %2, align 4
  %114 = sext i32 %113 to i64
  %115 = getelementptr inbounds [50 x [10 x i8]], [50 x [10 x i8]]* %5, i64 0, i64 %114
  %116 = load i32, i32* %3, align 4
  %117 = add nsw i32 %116, 2
  %118 = sext i32 %117 to i64
  %119 = getelementptr inbounds [10 x i8], [10 x i8]* %115, i64 0, i64 %118
  %120 = load i8, i8* %119, align 1
  %121 = sext i8 %120 to i32
  %122 = icmp eq i32 %121, 0
  br i1 %122, label %123, label %153

123:                                              ; preds = %112
  store i32 0, i32* %4, align 4
  br label %124

124:                                              ; preds = %139, %123
  %125 = load i32, i32* %4, align 4
  %126 = load i32, i32* %3, align 4
  %127 = sub nsw i32 %126, 1
  %128 = icmp slt i32 %125, %127
  br i1 %128, label %129, label %142

129:                                              ; preds = %124
  %130 = load i32, i32* %2, align 4
  %131 = sext i32 %130 to i64
  %132 = getelementptr inbounds [50 x [10 x i8]], [50 x [10 x i8]]* %5, i64 0, i64 %131
  %133 = load i32, i32* %4, align 4
  %134 = sext i32 %133 to i64
  %135 = getelementptr inbounds [10 x i8], [10 x i8]* %132, i64 0, i64 %134
  %136 = load i8, i8* %135, align 1
  %137 = sext i8 %136 to i32
  %138 = call i32 (i8*, ...) @printf(i8* getelementptr inbounds ([3 x i8], [3 x i8]* @.str.2, i64 0, i64 0), i32 %137)
  br label %139

139:                                              ; preds = %129
  %140 = load i32, i32* %4, align 4
  %141 = add nsw i32 %140, 1
  store i32 %141, i32* %4, align 4
  br label %124

142:                                              ; preds = %124
  %143 = load i32, i32* %2, align 4
  %144 = sext i32 %143 to i64
  %145 = getelementptr inbounds [50 x [10 x i8]], [50 x [10 x i8]]* %5, i64 0, i64 %144
  %146 = load i32, i32* %3, align 4
  %147 = sub nsw i32 %146, 1
  %148 = sext i32 %147 to i64
  %149 = getelementptr inbounds [10 x i8], [10 x i8]* %145, i64 0, i64 %148
  %150 = load i8, i8* %149, align 1
  %151 = sext i8 %150 to i32
  %152 = call i32 (i8*, ...) @printf(i8* getelementptr inbounds ([4 x i8], [4 x i8]* @.str.3, i64 0, i64 0), i32 %151)
  br label %153

153:                                              ; preds = %142, %112, %101, %91
  %154 = load i32, i32* %2, align 4
  %155 = sext i32 %154 to i64
  %156 = getelementptr inbounds [50 x [10 x i8]], [50 x [10 x i8]]* %5, i64 0, i64 %155
  %157 = load i32, i32* %3, align 4
  %158 = sext i32 %157 to i64
  %159 = getelementptr inbounds [10 x i8], [10 x i8]* %156, i64 0, i64 %158
  %160 = load i8, i8* %159, align 1
  %161 = sext i8 %160 to i32
  %162 = icmp eq i32 %161, 105
  br i1 %162, label %163, label %226

163:                                              ; preds = %153
  %164 = load i32, i32* %2, align 4
  %165 = sext i32 %164 to i64
  %166 = getelementptr inbounds [50 x [10 x i8]], [50 x [10 x i8]]* %5, i64 0, i64 %165
  %167 = load i32, i32* %3, align 4
  %168 = add nsw i32 %167, 1
  %169 = sext i32 %168 to i64
  %170 = getelementptr inbounds [10 x i8], [10 x i8]* %166, i64 0, i64 %169
  %171 = load i8, i8* %170, align 1
  %172 = sext i8 %171 to i32
  %173 = icmp eq i32 %172, 110
  br i1 %173, label %174, label %226

174:                                              ; preds = %163
  %175 = load i32, i32* %2, align 4
  %176 = sext i32 %175 to i64
  %177 = getelementptr inbounds [50 x [10 x i8]], [50 x [10 x i8]]* %5, i64 0, i64 %176
  %178 = load i32, i32* %3, align 4
  %179 = add nsw i32 %178, 2
  %180 = sext i32 %179 to i64
  %181 = getelementptr inbounds [10 x i8], [10 x i8]* %177, i64 0, i64 %180
  %182 = load i8, i8* %181, align 1
  %183 = sext i8 %182 to i32
  %184 = icmp eq i32 %183, 103
  br i1 %184, label %185, label %226

185:                                              ; preds = %174
  %186 = load i32, i32* %2, align 4
  %187 = sext i32 %186 to i64
  %188 = getelementptr inbounds [50 x [10 x i8]], [50 x [10 x i8]]* %5, i64 0, i64 %187
  %189 = load i32, i32* %3, align 4
  %190 = add nsw i32 %189, 3
  %191 = sext i32 %190 to i64
  %192 = getelementptr inbounds [10 x i8], [10 x i8]* %188, i64 0, i64 %191
  %193 = load i8, i8* %192, align 1
  %194 = sext i8 %193 to i32
  %195 = icmp eq i32 %194, 0
  br i1 %195, label %196, label %226

196:                                              ; preds = %185
  store i32 0, i32* %4, align 4
  br label %197

197:                                              ; preds = %212, %196
  %198 = load i32, i32* %4, align 4
  %199 = load i32, i32* %3, align 4
  %200 = sub nsw i32 %199, 1
  %201 = icmp slt i32 %198, %200
  br i1 %201, label %202, label %215

202:                                              ; preds = %197
  %203 = load i32, i32* %2, align 4
  %204 = sext i32 %203 to i64
  %205 = getelementptr inbounds [50 x [10 x i8]], [50 x [10 x i8]]* %5, i64 0, i64 %204
  %206 = load i32, i32* %4, align 4
  %207 = sext i32 %206 to i64
  %208 = getelementptr inbounds [10 x i8], [10 x i8]* %205, i64 0, i64 %207
  %209 = load i8, i8* %208, align 1
  %210 = sext i8 %209 to i32
  %211 = call i32 (i8*, ...) @printf(i8* getelementptr inbounds ([3 x i8], [3 x i8]* @.str.2, i64 0, i64 0), i32 %210)
  br label %212

212:                                              ; preds = %202
  %213 = load i32, i32* %4, align 4
  %214 = add nsw i32 %213, 1
  store i32 %214, i32* %4, align 4
  br label %197

215:                                              ; preds = %197
  %216 = load i32, i32* %2, align 4
  %217 = sext i32 %216 to i64
  %218 = getelementptr inbounds [50 x [10 x i8]], [50 x [10 x i8]]* %5, i64 0, i64 %217
  %219 = load i32, i32* %3, align 4
  %220 = sub nsw i32 %219, 1
  %221 = sext i32 %220 to i64
  %222 = getelementptr inbounds [10 x i8], [10 x i8]* %218, i64 0, i64 %221
  %223 = load i8, i8* %222, align 1
  %224 = sext i8 %223 to i32
  %225 = call i32 (i8*, ...) @printf(i8* getelementptr inbounds ([4 x i8], [4 x i8]* @.str.3, i64 0, i64 0), i32 %224)
  br label %226

226:                                              ; preds = %215, %185, %174, %163, %153
  br label %227

227:                                              ; preds = %226
  %228 = load i32, i32* %3, align 4
  %229 = add nsw i32 %228, 1
  store i32 %229, i32* %3, align 4
  br label %26

230:                                              ; preds = %26
  br label %231

231:                                              ; preds = %230
  %232 = load i32, i32* %2, align 4
  %233 = add nsw i32 %232, 1
  store i32 %233, i32* %2, align 4
  br label %21

234:                                              ; preds = %21
  ret void
}

declare dso_local i32 @__isoc99_scanf(i8*, ...) #1

declare dso_local i32 @printf(i8*, ...) #1


!llvm.module.flags = !{!0}
!llvm.ident = !{!1}

!0 = !{i32 1, !"wchar_size", i32 4}
!1 = !{!"clang version 10.0.0-4ubuntu1 "}
